; ModuleID = 'bench/proj/original/adjlon.cpp.ll'
source_filename = "bench/proj/original/adjlon.cpp.ll"
target datalayout = "e-m:e-p270:32:32-p271:32:32-p272:64:64-i64:64-i128:128-f80:128-n8:16:32:64-S128"
target triple = "x86_64-pc-linux-gnu"

; Function Attrs: mustprogress nofree norecurse nosync nounwind willreturn memory(none) uwtable
define noundef double @_Z6adjlond(double noundef %0) local_unnamed_addr #0 {
  %2 = tail call double @llvm.fabs.f64(double %0)
  %3 = fcmp olt double %2, 0x400921FB544435E4
  br i1 %3, label %10, label %4

4:                                                ; preds = %1
  %5 = fadd double %0, 0x400921FB54442D18
  %6 = fdiv double %5, 0x401921FB54442D18
  %7 = tail call double @llvm.floor.f64(double %6)
  %8 = tail call double @llvm.fmuladd.f64(double %7, double 0xC01921FB54442D18, double %5)
  %9 = fadd double %8, 0xC00921FB54442D18
  br label %10

10:                                               ; preds = %1, %4
  %.0 = phi double [ %9, %4 ], [ %0, %1 ]
  ret double %.0
}

; Function Attrs: mustprogress nocallback nofree nosync nounwind speculatable willreturn memory(none)
declare double @llvm.fabs.f64(double) #1

; Function Attrs: mustprogress nocallback nofree nosync nounwind speculatable willreturn memory(none)
declare double @llvm.floor.f64(double) #1

; Function Attrs: mustprogress nocallback nofree nosync nounwind speculatable willreturn memory(none)
declare double @llvm.fmuladd.f64(double, double, double) #1


!llvm.module.flags = !{!0, !1, !2, !3}

!0 = !{i32 1, !"wchar_size", i32 4}
!1 = !{i32 8, !"PIC Level", i32 2}
!2 = !{i32 7, !"uwtable", i32 2}
!3 = !{i32 7, !"frame-pointer", i32 2}
